target datalayout = "e-m:e-p270:32:32-p271:32:32-p272:64:64-i64:64-i128:128-f80:128-n8:16:32:64-S128"
target triple = "x86_64-pc-linux-gnu"

%struct.IOStreamStdioData = type { ptr, i8, i8 }

@.str.21 = private unnamed_addr constant [34 x i8] c"Error reading from datastream: %s\00", align 1

; Function Attrs: nounwind uwtable
define internal i64 @stdio_read(ptr noundef %0, ptr noundef %1, i64 noundef %2, ptr noundef %3) #0 {
  %5 = alloca ptr, align 8
  %6 = alloca ptr, align 8
  %7 = alloca i64, align 8
  %8 = alloca ptr, align 8
  %9 = alloca ptr, align 8
  %10 = alloca i64, align 8
  store ptr %0, ptr %5, align 8
  store ptr %1, ptr %6, align 8
  store i64 %2, ptr %7, align 8
  store ptr %3, ptr %8, align 8
  call void @llvm.lifetime.start.p0(i64 8, ptr %9) #11
  %11 = load ptr, ptr %5, align 8
  store ptr %11, ptr %9, align 8
  call void @llvm.lifetime.start.p0(i64 8, ptr %10) #11
  %12 = load ptr, ptr %6, align 8
  %13 = load i64, ptr %7, align 8
  %14 = load ptr, ptr %9, align 8
  %15 = getelementptr inbounds nuw %struct.IOStreamStdioData, ptr %14, i32 0, i32 0
  %16 = load ptr, ptr %15, align 8
  %17 = call i64 @fread(ptr noundef %12, i64 noundef 1, i64 noundef %13, ptr noundef %16)
  store i64 %17, ptr %10, align 8
  %18 = load i64, ptr %10, align 8
  %19 = icmp eq i64 %18, 0
  br i1 %19, label %20, label %41

20:                                               ; preds = %4
  %21 = load ptr, ptr %9, align 8
  %22 = getelementptr inbounds nuw %struct.IOStreamStdioData, ptr %21, i32 0, i32 0
  %23 = load ptr, ptr %22, align 8
  %24 = call i32 @ferror(ptr noundef %23) #11
  %25 = icmp ne i32 %24, 0
  br i1 %25, label %26, label %41

26:                                               ; preds = %20
  %27 = call ptr @__errno_location() #13
  %28 = load i32, ptr %27, align 4
  %29 = icmp eq i32 %28, 11
  br i1 %29, label %30, label %35

30:                                               ; preds = %26
  %31 = load ptr, ptr %8, align 8
  store i32 3, ptr %31, align 4
  %32 = load ptr, ptr %9, align 8
  %33 = getelementptr inbounds nuw %struct.IOStreamStdioData, ptr %32, i32 0, i32 0
  %34 = load ptr, ptr %33, align 8
  call void @clearerr(ptr noundef %34) #11
  br label %40

35:                                               ; preds = %26
  %36 = call ptr @__errno_location() #13
  %37 = load i32, ptr %36, align 4
  %38 = call ptr @strerror(i32 noundef %37) #11
  %39 = call zeroext i1 (ptr, ...) @SDL_SetError_REAL(ptr noundef @.str.21, ptr noundef %38)
  br label %40

40:                                               ; preds = %35, %30
  br label %41

41:                                               ; preds = %40, %20, %4
  %42 = load i64, ptr %10, align 8
  call void @llvm.lifetime.end.p0(i64 8, ptr %10) #11
  call void @llvm.lifetime.end.p0(i64 8, ptr %9) #11
  ret i64 %42
}